; Function Attrs: mustprogress uwtable
define void @_ZNK6casadi17BSplineParametric10jac_cachedEv(ptr dead_on_unwind noalias writable sret(%"class.casadi::MX") align 8 %0, ptr noundef nonnull align 8 dereferenceable(232) %1) unnamed_addr #3 align 2 personality ptr @__gxx_personality_v0 {
  %3 = alloca %"class.casadi::MX", align 8
  %4 = getelementptr inbounds i8, ptr %1, i64 224
  %5 = tail call noundef nonnull align 8 dereferenceable(8) ptr @_ZNK6casadi2MX8sparsityEv(ptr noundef nonnull align 8 dereferenceable(8) %4)
  %6 = tail call noundef zeroext i1 @_ZNK6casadi8Sparsity8is_emptyEb(ptr noundef nonnull align 8 dereferenceable(8) %5, i1 noundef zeroext false)
  br i1 %6, label %7, label %22

7:                                                ; preds = %2
  %8 = getelementptr inbounds i8, ptr %1, i64 32
  %9 = getelementptr inbounds i8, ptr %1, i64 40
  %10 = load ptr, ptr %9, align 8
  %11 = load ptr, ptr %8, align 8
  %12 = ptrtoint ptr %10 to i64
  %13 = ptrtoint ptr %11 to i64
  %14 = sub i64 %12, %13
  %15 = ashr exact i64 %14, 3
  %.not.i.i.i.not = icmp eq ptr %10, %11
  br i1 %.not.i.i.i.not, label %16, label %_ZNK6casadi6MXNode3depEx.exit

16:                                               ; preds = %7
  tail call void (ptr, ...) @_ZSt24__throw_out_of_range_fmtPKcz(ptr noundef nonnull @.str.51, i64 noundef 0, i64 noundef %15) #26
  unreachable

_ZNK6casadi6MXNode3depEx.exit:                    ; preds = %7
  %.not.i.i.i2 = icmp ugt i64 %15, 1
  br i1 %.not.i.i.i2, label %_ZNK6casadi6MXNode3depEx.exit3, label %17

17:                                               ; preds = %_ZNK6casadi6MXNode3depEx.exit
  tail call void (ptr, ...) @_ZSt24__throw_out_of_range_fmtPKcz(ptr noundef nonnull @.str.51, i64 noundef 1, i64 noundef %15) #26
  unreachable

_ZNK6casadi6MXNode3depEx.exit3:                   ; preds = %_ZNK6casadi6MXNode3depEx.exit
  %18 = getelementptr inbounds i8, ptr %11, i64 8
  call void @_ZNK6casadi13BSplineCommon3jacINS_2MXEEES2_RKS2_RKT_(ptr dead_on_unwind nonnull writable sret(%"class.casadi::MX") align 8 %3, ptr noundef nonnull align 8 dereferenceable(232) %1, ptr noundef nonnull align 8 dereferenceable(8) %11, ptr noundef nonnull align 8 dereferenceable(8) %18)
  %19 = invoke noundef nonnull align 8 dereferenceable(8) ptr @_ZN6casadi12SharedObjectaSERKS0_(ptr noundef nonnull align 8 dereferenceable(8) %4, ptr noundef nonnull align 8 dereferenceable(8) %3)
          to label %_ZN6casadi2MXaSERKS0_.exit unwind label %20

_ZN6casadi2MXaSERKS0_.exit:                       ; preds = %_ZNK6casadi6MXNode3depEx.exit3
  call void @_ZN6casadi2MXD1Ev(ptr noundef nonnull align 8 dereferenceable(8) %3) #23
  br label %22

20:                                               ; preds = %_ZNK6casadi6MXNode3depEx.exit3
  %21 = landingpad { ptr, i32 }
          cleanup
  call void @_ZN6casadi2MXD1Ev(ptr noundef nonnull align 8 dereferenceable(8) %3) #23
  resume { ptr, i32 } %21

22:                                               ; preds = %_ZN6casadi2MXaSERKS0_.exit, %2
  call void @_ZN6casadi12SharedObjectC2ERKS0_(ptr noundef nonnull align 8 dereferenceable(8) %0, ptr noundef nonnull align 8 dereferenceable(8) %4)
  ret void
}